; Function Attrs: mustprogress uwtable
define noundef ptr @_ZNK6icu_7518CurrencyPluralInfo5cloneEv(ptr noundef nonnull align 8 dereferenceable(36) %this) local_unnamed_addr #1 align 2 personality ptr @__gxx_personality_v0 {
entry:
  %call = tail call noundef ptr @_ZN6icu_757UMemorynwEm(i64 noundef 40) #10
  %new.isnull = icmp eq ptr %call, null
  br i1 %new.isnull, label %if.end, label %new.notnull

new.notnull:                                      ; preds = %entry
  invoke void @_ZN6icu_7518CurrencyPluralInfoC1ERKS0_(ptr noundef nonnull align 8 dereferenceable(36) %call, ptr noundef nonnull align 8 dereferenceable(36) %this)
          to label %land.lhs.true unwind label %lpad

land.lhs.true:                                    ; preds = %new.notnull
  %fInternalStatus = getelementptr inbounds i8, ptr %call, i64 32
  %0 = load i32, ptr %fInternalStatus, align 8
  %cmp.i = icmp slt i32 %0, 1
  br i1 %cmp.i, label %if.end, label %delete.notnull

delete.notnull:                                   ; preds = %land.lhs.true
  %vtable = load ptr, ptr %call, align 8
  %vfn = getelementptr inbounds i8, ptr %vtable, i64 8
  %1 = load ptr, ptr %vfn, align 8
  tail call void %1(ptr noundef nonnull align 8 dereferenceable(36) %call) #10
  br label %if.end

lpad:                                             ; preds = %new.notnull
  %2 = landingpad { ptr, i32 }
          cleanup
  tail call void @_ZN6icu_757UMemorydlEPv(ptr noundef nonnull %call) #10
  resume { ptr, i32 } %2

if.end:                                           ; preds = %entry, %delete.notnull, %land.lhs.true
  %newObj.0 = phi ptr [ null, %delete.notnull ], [ %call, %land.lhs.true ], [ null, %entry ]
  ret ptr %newObj.0
}